target datalayout = "e-m:e-p270:32:32-p271:32:32-p272:64:64-i64:64-i128:128-f80:128-n8:16:32:64-S128"
target triple = "x86_64-pc-linux-gnu"

%struct._cmstransform_struct = type { i32, i32, ptr, ptr, ptr, ptr, ptr, %struct._cmsCACHE, ptr, ptr, ptr, ptr, i32, i32, %struct.cmsCIEXYZ, %struct.cmsCIEXYZ, ptr, i32, double, i32, ptr, ptr, ptr, ptr, ptr, i32, i32 }
%struct._cmsCACHE = type { [16 x i16], [16 x i16] }
%struct.cmsCIEXYZ = type { double, double, double }
%struct.cmsStride = type { i32, i32, i32, i32 }

; Function Attrs: nounwind uwtable
define internal void @FloatXFORM(ptr noundef %0, ptr noundef %1, ptr noundef %2, i32 noundef %3, i32 noundef %4, ptr noundef %5) #0 {
  %7 = alloca ptr, align 8
  %8 = alloca ptr, align 8
  %9 = alloca ptr, align 8
  %10 = alloca i32, align 4
  %11 = alloca i32, align 4
  %12 = alloca ptr, align 8
  %13 = alloca ptr, align 8
  %14 = alloca ptr, align 8
  %15 = alloca [16 x float], align 16
  %16 = alloca [16 x float], align 16
  %17 = alloca float, align 4
  %18 = alloca i32, align 4
  %19 = alloca i32, align 4
  %20 = alloca i32, align 4
  %21 = alloca i32, align 4
  %22 = alloca i32, align 4
  store ptr %0, ptr %7, align 8
  store ptr %1, ptr %8, align 8
  store ptr %2, ptr %9, align 8
  store i32 %3, ptr %10, align 4
  store i32 %4, ptr %11, align 4
  store ptr %5, ptr %12, align 8
  %23 = load ptr, ptr %7, align 8
  %24 = load ptr, ptr %8, align 8
  %25 = load ptr, ptr %9, align 8
  %26 = load i32, ptr %10, align 4
  %27 = load i32, ptr %11, align 4
  %28 = load ptr, ptr %12, align 8
  call void @_cmsHandleExtraChannels(ptr noundef %23, ptr noundef %24, ptr noundef %25, i32 noundef %26, i32 noundef %27, ptr noundef %28)
  store i32 0, ptr %21, align 4
  store i32 0, ptr %22, align 4
  %29 = getelementptr inbounds [16 x float], ptr %15, i64 0, i64 0
  call void @llvm.memset.p0.i64(ptr align 16 %29, i8 0, i64 64, i1 false)
  %30 = getelementptr inbounds [16 x float], ptr %16, i64 0, i64 0
  call void @llvm.memset.p0.i64(ptr align 16 %30, i8 0, i64 64, i1 false)
  store i32 0, ptr %18, align 4
  br label %31

31:                                               ; preds = %121, %6
  %32 = load i32, ptr %18, align 4
  %33 = load i32, ptr %11, align 4
  %34 = icmp ult i32 %32, %33
  br i1 %34, label %35, label %124

35:                                               ; preds = %31
  %36 = load ptr, ptr %8, align 8
  %37 = load i32, ptr %21, align 4
  %38 = zext i32 %37 to i64
  %39 = getelementptr inbounds i8, ptr %36, i64 %38
  store ptr %39, ptr %13, align 8
  %40 = load ptr, ptr %9, align 8
  %41 = load i32, ptr %22, align 4
  %42 = zext i32 %41 to i64
  %43 = getelementptr inbounds i8, ptr %40, i64 %42
  store ptr %43, ptr %14, align 8
  store i32 0, ptr %19, align 4
  br label %44

44:                                               ; preds = %107, %35
  %45 = load i32, ptr %19, align 4
  %46 = load i32, ptr %10, align 4
  %47 = icmp ult i32 %45, %46
  br i1 %47, label %48, label %110

48:                                               ; preds = %44
  %49 = load ptr, ptr %7, align 8
  %50 = getelementptr inbounds %struct._cmstransform_struct, ptr %49, i32 0, i32 5
  %51 = load ptr, ptr %50, align 8
  %52 = load ptr, ptr %7, align 8
  %53 = getelementptr inbounds [16 x float], ptr %15, i64 0, i64 0
  %54 = load ptr, ptr %13, align 8
  %55 = load ptr, ptr %12, align 8
  %56 = getelementptr inbounds %struct.cmsStride, ptr %55, i32 0, i32 2
  %57 = load i32, ptr %56, align 4
  %58 = call ptr %51(ptr noundef %52, ptr noundef %53, ptr noundef %54, i32 noundef %57)
  store ptr %58, ptr %13, align 8
  %59 = load ptr, ptr %7, align 8
  %60 = getelementptr inbounds %struct._cmstransform_struct, ptr %59, i32 0, i32 9
  %61 = load ptr, ptr %60, align 8
  %62 = icmp ne ptr %61, null
  br i1 %62, label %63, label %90

63:                                               ; preds = %48
  %64 = getelementptr inbounds [16 x float], ptr %15, i64 0, i64 0
  %65 = load ptr, ptr %7, align 8
  %66 = getelementptr inbounds %struct._cmstransform_struct, ptr %65, i32 0, i32 9
  %67 = load ptr, ptr %66, align 8
  call void @cmsPipelineEvalFloat(ptr noundef %64, ptr noundef %17, ptr noundef %67)
  %68 = load float, ptr %17, align 4
  %69 = fpext float %68 to double
  %70 = fcmp ogt double %69, 0.000000e+00
  br i1 %70, label %71, label %83

71:                                               ; preds = %63
  store i32 0, ptr %20, align 4
  br label %72

72:                                               ; preds = %79, %71
  %73 = load i32, ptr %20, align 4
  %74 = icmp ult i32 %73, 16
  br i1 %74, label %75, label %82

75:                                               ; preds = %72
  %76 = load i32, ptr %20, align 4
  %77 = zext i32 %76 to i64
  %78 = getelementptr inbounds [16 x float], ptr %16, i64 0, i64 %77
  store float -1.000000e+00, ptr %78, align 4
  br label %79

79:                                               ; preds = %75
  %80 = load i32, ptr %20, align 4
  %81 = add i32 %80, 1
  store i32 %81, ptr %20, align 4
  br label %72, !llvm.loop !15

82:                                               ; preds = %72
  br label %89

83:                                               ; preds = %63
  %84 = getelementptr inbounds [16 x float], ptr %15, i64 0, i64 0
  %85 = getelementptr inbounds [16 x float], ptr %16, i64 0, i64 0
  %86 = load ptr, ptr %7, align 8
  %87 = getelementptr inbounds %struct._cmstransform_struct, ptr %86, i32 0, i32 8
  %88 = load ptr, ptr %87, align 8
  call void @cmsPipelineEvalFloat(ptr noundef %84, ptr noundef %85, ptr noundef %88)
  br label %89

89:                                               ; preds = %83, %82
  br label %96

90:                                               ; preds = %48
  %91 = getelementptr inbounds [16 x float], ptr %15, i64 0, i64 0
  %92 = getelementptr inbounds [16 x float], ptr %16, i64 0, i64 0
  %93 = load ptr, ptr %7, align 8
  %94 = getelementptr inbounds %struct._cmstransform_struct, ptr %93, i32 0, i32 8
  %95 = load ptr, ptr %94, align 8
  call void @cmsPipelineEvalFloat(ptr noundef %91, ptr noundef %92, ptr noundef %95)
  br label %96

96:                                               ; preds = %90, %89
  %97 = load ptr, ptr %7, align 8
  %98 = getelementptr inbounds %struct._cmstransform_struct, ptr %97, i32 0, i32 6
  %99 = load ptr, ptr %98, align 8
  %100 = load ptr, ptr %7, align 8
  %101 = getelementptr inbounds [16 x float], ptr %16, i64 0, i64 0
  %102 = load ptr, ptr %14, align 8
  %103 = load ptr, ptr %12, align 8
  %104 = getelementptr inbounds %struct.cmsStride, ptr %103, i32 0, i32 3
  %105 = load i32, ptr %104, align 4
  %106 = call ptr %99(ptr noundef %100, ptr noundef %101, ptr noundef %102, i32 noundef %105)
  store ptr %106, ptr %14, align 8
  br label %107

107:                                              ; preds = %96
  %108 = load i32, ptr %19, align 4
  %109 = add i32 %108, 1
  store i32 %109, ptr %19, align 4
  br label %44, !llvm.loop !16

110:                                              ; preds = %44
  %111 = load ptr, ptr %12, align 8
  %112 = getelementptr inbounds %struct.cmsStride, ptr %111, i32 0, i32 0
  %113 = load i32, ptr %112, align 4
  %114 = load i32, ptr %21, align 4
  %115 = add i32 %114, %113
  store i32 %115, ptr %21, align 4
  %116 = load ptr, ptr %12, align 8
  %117 = getelementptr inbounds %struct.cmsStride, ptr %116, i32 0, i32 1
  %118 = load i32, ptr %117, align 4
  %119 = load i32, ptr %22, align 4
  %120 = add i32 %119, %118
  store i32 %120, ptr %22, align 4
  br label %121

121:                                              ; preds = %110
  %122 = load i32, ptr %18, align 4
  %123 = add i32 %122, 1
  store i32 %123, ptr %18, align 4
  br label %31, !llvm.loop !17

124:                                              ; preds = %31
  ret void
}