; Function Attrs: nounwind uwtable
define internal void @FloatXFORM(ptr noundef %0, ptr noundef %1, ptr noundef %2, i32 noundef %3, i32 noundef %4, ptr noundef %5) #0 {
  %7 = alloca [16 x float], align 16
  %8 = alloca [16 x float], align 16
  %9 = alloca float, align 4
  tail call void @_cmsHandleExtraChannels(ptr noundef %0, ptr noundef %1, ptr noundef %2, i32 noundef %3, i32 noundef %4, ptr noundef %5) #11
  call void @llvm.memset.p0.i64(ptr noundef nonnull align 16 dereferenceable(64) %7, i8 0, i64 64, i1 false)
  call void @llvm.memset.p0.i64(ptr noundef nonnull align 16 dereferenceable(64) %8, i8 0, i64 64, i1 false)
  %.not = icmp eq i32 %4, 0
  br i1 %.not, label %._crit_edge50, label %.lr.ph49

.lr.ph49:                                         ; preds = %6
  %.not51 = icmp eq i32 %3, 0
  %10 = getelementptr inbounds i8, ptr %0, i64 32
  %11 = getelementptr inbounds i8, ptr %5, i64 8
  %12 = getelementptr inbounds i8, ptr %0, i64 120
  %13 = getelementptr inbounds i8, ptr %0, i64 112
  %14 = getelementptr inbounds i8, ptr %0, i64 40
  %15 = getelementptr inbounds i8, ptr %5, i64 12
  %16 = getelementptr inbounds i8, ptr %5, i64 4
  br i1 %.not51, label %._crit_edge50, label %.lr.ph.us

.lr.ph.us:                                        ; preds = %.lr.ph49, %._crit_edge.us
  %.047.us = phi i32 [ %38, %._crit_edge.us ], [ 0, %.lr.ph49 ]
  %.03446.us = phi i32 [ %36, %._crit_edge.us ], [ 0, %.lr.ph49 ]
  %.03745.us = phi i32 [ %39, %._crit_edge.us ], [ 0, %.lr.ph49 ]
  %17 = zext i32 %.03446.us to i64
  %18 = getelementptr inbounds i8, ptr %1, i64 %17
  %19 = zext i32 %.047.us to i64
  %20 = getelementptr inbounds i8, ptr %2, i64 %19
  br label %21

21:                                               ; preds = %.lr.ph.us, %.loopexit.us
  %.03644.us = phi i32 [ 0, %.lr.ph.us ], [ %34, %.loopexit.us ]
  %.03843.us = phi ptr [ %20, %.lr.ph.us ], [ %33, %.loopexit.us ]
  %.03942.us = phi ptr [ %18, %.lr.ph.us ], [ %24, %.loopexit.us ]
  %22 = load ptr, ptr %10, align 8
  %23 = load i32, ptr %11, align 4
  %24 = call ptr %22(ptr noundef %0, ptr noundef nonnull %7, ptr noundef %.03942.us, i32 noundef %23) #11
  %25 = load ptr, ptr %12, align 8
  %.not.us = icmp eq ptr %25, null
  br i1 %.not.us, label %.loopexit.us.sink.split, label %26

26:                                               ; preds = %21
  call void @cmsPipelineEvalFloat(ptr noundef nonnull %7, ptr noundef nonnull %9, ptr noundef nonnull %25) #11
  %27 = load float, ptr %9, align 4
  %28 = fcmp ogt float %27, 0.000000e+00
  br i1 %28, label %.preheader.us, label %.loopexit.us.sink.split

.preheader.us:                                    ; preds = %26, %.preheader.us
  %indvars.iv = phi i64 [ %indvars.iv.next, %.preheader.us ], [ 0, %26 ]
  %29 = getelementptr inbounds [16 x float], ptr %8, i64 0, i64 %indvars.iv
  store float -1.000000e+00, ptr %29, align 4
  %indvars.iv.next = add nuw nsw i64 %indvars.iv, 1
  %exitcond.not = icmp eq i64 %indvars.iv.next, 16
  br i1 %exitcond.not, label %.loopexit.us, label %.preheader.us, !llvm.loop !16

.loopexit.us.sink.split:                          ; preds = %21, %26
  %30 = load ptr, ptr %13, align 8
  call void @cmsPipelineEvalFloat(ptr noundef nonnull %7, ptr noundef nonnull %8, ptr noundef %30) #11
  br label %.loopexit.us

.loopexit.us:                                     ; preds = %.preheader.us, %.loopexit.us.sink.split
  %31 = load ptr, ptr %14, align 8
  %32 = load i32, ptr %15, align 4
  %33 = call ptr %31(ptr noundef %0, ptr noundef nonnull %8, ptr noundef %.03843.us, i32 noundef %32) #11
  %34 = add nuw i32 %.03644.us, 1
  %exitcond54.not = icmp eq i32 %34, %3
  br i1 %exitcond54.not, label %._crit_edge.us, label %21, !llvm.loop !17

._crit_edge.us:                                   ; preds = %.loopexit.us
  %35 = load i32, ptr %5, align 4
  %36 = add i32 %35, %.03446.us
  %37 = load i32, ptr %16, align 4
  %38 = add i32 %37, %.047.us
  %39 = add nuw i32 %.03745.us, 1
  %exitcond55.not = icmp eq i32 %39, %4
  br i1 %exitcond55.not, label %._crit_edge50, label %.lr.ph.us, !llvm.loop !18

._crit_edge50:                                    ; preds = %._crit_edge.us, %.lr.ph49, %6
  ret void
}